; Listing generated by Microsoft (R) Optimizing Compiler Version 19.23.28106.4 

	TITLE	J:\for_linux_file\work\3D-Builder\3D-Builder\Debug\moc\moc_MyOpenGLWidget.cpp
	.686P
	.XMM
	include listing.inc
	.model	flat

INCLUDELIB MSVCRTD
INCLUDELIB OLDNAMES

CONST	SEGMENT
$SG442666 DB	'J:\QT5.12.2\5.12.2\msvc2017\include\QtCore\qmetatype.h', 00H
	ORG $+1
$SG442667 DB	'qRegisterNormalizedMetaType was called with a not normal'
	DB	'ized type name, please call qRegisterMetaType instead.', 00H
	ORG $+1
$SG442668 DB	'qRegisterNormalizedMetaType', 00H
$SG443059 DB	'J:\QT5.12.2\5.12.2\msvc2017\include\QtCore\qmetatype.h', 00H
	ORG $+1
$SG443061 DB	'qRegisterNormalizedMetaType', 00H
$SG451252 DB	'C:\Program Files (x86)\Microsoft Visual Studio\2019\Ente'
	DB	'rprise\VC\Tools\MSVC\14.23.28105\include\xlocale', 00H
	ORG $+3
$SG435040 DB	'J:\QT5.12.2\5.12.2\msvc2017\include\QtCore\qmetatype.h', 00H
	ORG $+1
$SG435042 DB	'qRegisterNormalizedMetaType', 00H
$SG443060 DB	'qRegisterNormalizedMetaType was called with a not normal'
	DB	'ized type name, please call qRegisterMetaType instead.', 00H
	ORG $+1
$SG435041 DB	'qRegisterNormalizedMetaType was called with a not normal'
	DB	'ized type name, please call qRegisterMetaType instead.', 00H
	ORG $+1
$SG443452 DB	'J:\QT5.12.2\5.12.2\msvc2017\include\QtCore\qmetatype.h', 00H
	ORG $+1
$SG443453 DB	'qRegisterNormalizedMetaType was called with a not normal'
	DB	'ized type name, please call qRegisterMetaType instead.', 00H
	ORG $+1
$SG443454 DB	'qRegisterNormalizedMetaType', 00H
$SG435379 DB	'J:\QT5.12.2\5.12.2\msvc2017\include\QtCore\qmetatype.h', 00H
	ORG $+1
$SG435381 DB	'qRegisterNormalizedMetaType', 00H
$SG435380 DB	'qRegisterNormalizedMetaType was called with a not normal'
	DB	'ized type name, please call qRegisterMetaType instead.', 00H
	ORG $+1
?qt_meta_stringdata_MyOpenGLWidget@@3Uqt_meta_stringdata_MyOpenGLWidget_t@@B DD 0ffffffffH ; qt_meta_stringdata_MyOpenGLWidget
	DD	0eH
	DD	00H
	DD	010H
	DB	04dH
	DB	079H
	DB	04fH
	DB	070H
	DB	065H
	DB	06eH
	DB	047H
	DB	04cH
	DB	057H
	DB	069H
	DB	064H
	DB	067H
	DB	065H
	DB	074H
	DB	00H
	ORG $+1
?qt_meta_data_MyOpenGLWidget@@3QBIB DD 08H		; qt_meta_data_MyOpenGLWidget
	DD	00H
	DD	00H
	DD	00H
	DD	00H
	DD	00H
	DD	00H
	DD	00H
	DD	00H
	DD	00H
	DD	00H
	DD	00H
	DD	00H
	DD	00H
	DD	00H
$SG443845 DB	'J:\QT5.12.2\5.12.2\msvc2017\include\QtCore\qmetatype.h', 00H
	ORG $+1
$SG443847 DB	'qRegisterNormalizedMetaType', 00H
$SG443846 DB	'qRegisterNormalizedMetaType was called with a not normal'
	DB	'ized type name, please call qRegisterMetaType instead.', 00H
	ORG $+1
$SG411114 DB	'QOpenGLFunctions_4_4_Core', 00H
	ORG $+2
$SG435718 DB	'J:\QT5.12.2\5.12.2\msvc2017\include\QtCore\qmetatype.h', 00H
	ORG $+1
$SG435720 DB	'qRegisterNormalizedMetaType', 00H
$SG435719 DB	'qRegisterNormalizedMetaType was called with a not normal'
	DB	'ized type name, please call qRegisterMetaType instead.', 00H
	ORG $+1
$SG444238 DB	'J:\QT5.12.2\5.12.2\msvc2017\include\QtCore\qmetatype.h', 00H
	ORG $+1
$SG444239 DB	'qRegisterNormalizedMetaType was called with a not normal'
	DB	'ized type name, please call qRegisterMetaType instead.', 00H
	ORG $+1
$SG444240 DB	'qRegisterNormalizedMetaType', 00H
$SG444577 DB	'J:\QT5.12.2\5.12.2\msvc2017\include\QtCore\qmetatype.h', 00H
	ORG $+1
$SG444579 DB	'qRegisterNormalizedMetaType', 00H
$SG444578 DB	'qRegisterNormalizedMetaType was called with a not normal'
	DB	'ized type name, please call qRegisterMetaType instead.', 00H
	ORG $+1
$SG436545 DB	'J:\QT5.12.2\5.12.2\msvc2017\include\QtCore\qmetatype.h', 00H
	ORG $+1
$SG436546 DB	'qRegisterNormalizedMetaType was called with a not normal'
	DB	'ized type name, please call qRegisterMetaType instead.', 00H
	ORG $+1
$SG436547 DB	'qRegisterNormalizedMetaType', 00H
$SG444916 DB	'J:\QT5.12.2\5.12.2\msvc2017\include\QtCore\qmetatype.h', 00H
	ORG $+1
$SG444918 DB	'qRegisterNormalizedMetaType', 00H
$SG444917 DB	'qRegisterNormalizedMetaType was called with a not normal'
	DB	'ized type name, please call qRegisterMetaType instead.', 00H
	ORG $+1
$SG436923 DB	'J:\QT5.12.2\5.12.2\msvc2017\include\QtCore\qmetatype.h', 00H
	ORG $+1
$SG436924 DB	'qRegisterNormalizedMetaType was called with a not normal'
	DB	'ized type name, please call qRegisterMetaType instead.', 00H
	ORG $+1
$SG436925 DB	'qRegisterNormalizedMetaType', 00H
$SG428819 DB	'containers incompatible for swap', 00H
	ORG $+3
$SG428820 DB	'%s', 00H
	ORG $+1
$SG445296 DB	'qRegisterNormalizedMetaType', 00H
$SG428821 DB	'C:\Program Files (x86)\Microsoft Visual Studio\2019\Ente'
	DB	'rprise\VC\Tools\MSVC\14.23.28105\include\xmemory', 00H
	ORG $+3
$SG428823 DB	's', 00H, 't', 00H, 'd', 00H, ':', 00H, ':', 00H, '_', 00H
	DB	'P', 00H, 'o', 00H, 'c', 00H, 's', 00H, 00H, 00H
	ORG $+2
$SG445294 DB	'J:\QT5.12.2\5.12.2\msvc2017\include\QtCore\qmetatype.h', 00H
	ORG $+1
$SG437264 DB	'qRegisterNormalizedMetaType', 00H
$SG428822 DB	'C', 00H, ':', 00H, '\', 00H, 'P', 00H, 'r', 00H, 'o', 00H
	DB	'g', 00H, 'r', 00H, 'a', 00H, 'm', 00H, ' ', 00H, 'F', 00H, 'i'
	DB	00H, 'l', 00H, 'e', 00H, 's', 00H, ' ', 00H, '(', 00H, 'x', 00H
	DB	'8', 00H, '6', 00H, ')', 00H, '\', 00H, 'M', 00H, 'i', 00H, 'c'
	DB	00H, 'r', 00H, 'o', 00H, 's', 00H, 'o', 00H, 'f', 00H, 't', 00H
	DB	' ', 00H, 'V', 00H, 'i', 00H, 's', 00H, 'u', 00H, 'a', 00H, 'l'
	DB	00H, ' ', 00H, 'S', 00H, 't', 00H, 'u', 00H, 'd', 00H, 'i', 00H
	DB	'o', 00H, '\', 00H, '2', 00H, '0', 00H, '1', 00H, '9', 00H, '\'
	DB	00H, 'E', 00H, 'n', 00H, 't', 00H, 'e', 00H, 'r', 00H, 'p', 00H
	DB	'r', 00H, 'i', 00H, 's', 00H, 'e', 00H, '\', 00H, 'V', 00H, 'C'
	DB	00H, '\', 00H, 'T', 00H, 'o', 00H, 'o', 00H, 'l', 00H, 's', 00H
	DB	'\', 00H, 'M', 00H, 'S', 00H, 'V', 00H, 'C', 00H, '\', 00H, '1'
	DB	00H, '4', 00H, '.', 00H, '2', 00H, '3', 00H, '.', 00H, '2', 00H
	DB	'8', 00H, '1', 00H, '0', 00H, '5', 00H, '\', 00H, 'i', 00H, 'n'
	DB	00H, 'c', 00H, 'l', 00H, 'u', 00H, 'd', 00H, 'e', 00H, '\', 00H
	DB	'x', 00H, 'm', 00H, 'e', 00H, 'm', 00H, 'o', 00H, 'r', 00H, 'y'
	DB	00H, 00H, 00H
	ORG $+2
$SG437262 DB	'J:\QT5.12.2\5.12.2\msvc2017\include\QtCore\qmetatype.h', 00H
	ORG $+1
$SG445674 DB	'qRegisterNormalizedMetaType', 00H
$SG428824 DB	'"', 00H, 'c', 00H, 'o', 00H, 'n', 00H, 't', 00H, 'a', 00H
	DB	'i', 00H, 'n', 00H, 'e', 00H, 'r', 00H, 's', 00H, ' ', 00H, 'i'
	DB	00H, 'n', 00H, 'c', 00H, 'o', 00H, 'm', 00H, 'p', 00H, 'a', 00H
	DB	't', 00H, 'i', 00H, 'b', 00H, 'l', 00H, 'e', 00H, ' ', 00H, 'f'
	DB	00H, 'o', 00H, 'r', 00H, ' ', 00H, 's', 00H, 'w', 00H, 'a', 00H
	DB	'p', 00H, '"', 00H, 00H, 00H
	ORG $+2
$SG445295 DB	'qRegisterNormalizedMetaType was called with a not normal'
	DB	'ized type name, please call qRegisterMetaType instead.', 00H
	ORG $+1
$SG437263 DB	'qRegisterNormalizedMetaType was called with a not normal'
	DB	'ized type name, please call qRegisterMetaType instead.', 00H
	ORG $+1
$SG445672 DB	'J:\QT5.12.2\5.12.2\msvc2017\include\QtCore\qmetatype.h', 00H
	ORG $+1
$SG445673 DB	'qRegisterNormalizedMetaType was called with a not normal'
	DB	'ized type name, please call qRegisterMetaType instead.', 00H
	ORG $+1
$SG437601 DB	'J:\QT5.12.2\5.12.2\msvc2017\include\QtCore\qmetatype.h', 00H
	ORG $+1
$SG437602 DB	'qRegisterNormalizedMetaType was called with a not normal'
	DB	'ized type name, please call qRegisterMetaType instead.', 00H
	ORG $+1
$SG437603 DB	'qRegisterNormalizedMetaType', 00H
$SG446011 DB	'J:\QT5.12.2\5.12.2\msvc2017\include\QtCore\qmetatype.h', 00H
	ORG $+1
$SG446013 DB	'qRegisterNormalizedMetaType', 00H
$SG446012 DB	'qRegisterNormalizedMetaType was called with a not normal'
	DB	'ized type name, please call qRegisterMetaType instead.', 00H
	ORG $+1
$SG429708 DB	'J:\QT5.12.2\5.12.2\msvc2017\include\QtCore\qmetatype.h', 00H
	ORG $+1
$SG429709 DB	'qRegisterNormalizedMetaType was called with a not normal'
	DB	'ized type name, please call qRegisterMetaType instead.', 00H
	ORG $+1
$SG429710 DB	'qRegisterNormalizedMetaType', 00H
$SG437940 DB	'J:\QT5.12.2\5.12.2\msvc2017\include\QtCore\qmetatype.h', 00H
	ORG $+1
$SG437942 DB	'qRegisterNormalizedMetaType', 00H
$SG437941 DB	'qRegisterNormalizedMetaType was called with a not normal'
	DB	'ized type name, please call qRegisterMetaType instead.', 00H
	ORG $+1
$SG446389 DB	'J:\QT5.12.2\5.12.2\msvc2017\include\QtCore\qmetatype.h', 00H
	ORG $+1
$SG446390 DB	'qRegisterNormalizedMetaType was called with a not normal'
	DB	'ized type name, please call qRegisterMetaType instead.', 00H
	ORG $+1
$SG446391 DB	'qRegisterNormalizedMetaType', 00H
$SG438304 DB	'J:\QT5.12.2\5.12.2\msvc2017\include\QtCore\qmetatype.h', 00H
	ORG $+1
$SG438306 DB	'qRegisterNormalizedMetaType', 00H
$SG438305 DB	'qRegisterNormalizedMetaType was called with a not normal'
	DB	'ized type name, please call qRegisterMetaType instead.', 00H
	ORG $+1
$SG446767 DB	'J:\QT5.12.2\5.12.2\msvc2017\include\QtCore\qmetatype.h', 00H
	ORG $+1
$SG446768 DB	'qRegisterNormalizedMetaType was called with a not normal'
	DB	'ized type name, please call qRegisterMetaType instead.', 00H
	ORG $+1
$SG446769 DB	'qRegisterNormalizedMetaType', 00H
$SG438643 DB	'J:\QT5.12.2\5.12.2\msvc2017\include\QtCore\qmetatype.h', 00H
	ORG $+1
$SG438645 DB	'qRegisterNormalizedMetaType', 00H
$SG438644 DB	'qRegisterNormalizedMetaType was called with a not normal'
	DB	'ized type name, please call qRegisterMetaType instead.', 00H
	ORG $+1
$SG447106 DB	'J:\QT5.12.2\5.12.2\msvc2017\include\QtCore\qmetatype.h', 00H
	ORG $+1
$SG447107 DB	'qRegisterNormalizedMetaType was called with a not normal'
	DB	'ized type name, please call qRegisterMetaType instead.', 00H
	ORG $+1
$SG447108 DB	'qRegisterNormalizedMetaType', 00H
$SG438982 DB	'J:\QT5.12.2\5.12.2\msvc2017\include\QtCore\qmetatype.h', 00H
	ORG $+1
$SG438984 DB	'qRegisterNormalizedMetaType', 00H
$SG438983 DB	'qRegisterNormalizedMetaType was called with a not normal'
	DB	'ized type name, please call qRegisterMetaType instead.', 00H
	ORG $+1
$SG447483 DB	'J:\QT5.12.2\5.12.2\msvc2017\include\QtCore\qmetatype.h', 00H
	ORG $+1
$SG447484 DB	'qRegisterNormalizedMetaType was called with a not normal'
	DB	'ized type name, please call qRegisterMetaType instead.', 00H
	ORG $+1
$SG447485 DB	'qRegisterNormalizedMetaType', 00H
$SG439321 DB	'J:\QT5.12.2\5.12.2\msvc2017\include\QtCore\qmetatype.h', 00H
	ORG $+1
$SG439323 DB	'qRegisterNormalizedMetaType', 00H
$SG439322 DB	'qRegisterNormalizedMetaType was called with a not normal'
	DB	'ized type name, please call qRegisterMetaType instead.', 00H
	ORG $+1
$SG447860 DB	'J:\QT5.12.2\5.12.2\msvc2017\include\QtCore\qmetatype.h', 00H
	ORG $+1
$SG447861 DB	'qRegisterNormalizedMetaType was called with a not normal'
	DB	'ized type name, please call qRegisterMetaType instead.', 00H
	ORG $+1
$SG447862 DB	'qRegisterNormalizedMetaType', 00H
$SG448239 DB	'J:\QT5.12.2\5.12.2\msvc2017\include\QtCore\qmetatype.h', 00H
	ORG $+1
$SG448241 DB	'qRegisterNormalizedMetaType', 00H
$SG448240 DB	'qRegisterNormalizedMetaType was called with a not normal'
	DB	'ized type name, please call qRegisterMetaType instead.', 00H
	ORG $+1
$SG448617 DB	'J:\QT5.12.2\5.12.2\msvc2017\include\QtCore\qmetatype.h', 00H
	ORG $+1
$SG448618 DB	'qRegisterNormalizedMetaType was called with a not normal'
	DB	'ized type name, please call qRegisterMetaType instead.', 00H
	ORG $+1
$SG448619 DB	'qRegisterNormalizedMetaType', 00H
$SG440704 DB	'J:\QT5.12.2\5.12.2\msvc2017\include\QtCore\qmetatype.h', 00H
	ORG $+1
$SG440706 DB	'qRegisterNormalizedMetaType', 00H
$SG440705 DB	'qRegisterNormalizedMetaType was called with a not normal'
	DB	'ized type name, please call qRegisterMetaType instead.', 00H
	ORG $+1
$SG448987 DB	'J:\QT5.12.2\5.12.2\msvc2017\include\QtCore\qmetatype.h', 00H
	ORG $+1
$SG448988 DB	'qRegisterNormalizedMetaType was called with a not normal'
	DB	'ized type name, please call qRegisterMetaType instead.', 00H
	ORG $+1
$SG448989 DB	'qRegisterNormalizedMetaType', 00H
$SG441082 DB	'J:\QT5.12.2\5.12.2\msvc2017\include\QtCore\qmetatype.h', 00H
	ORG $+1
$SG441084 DB	'qRegisterNormalizedMetaType', 00H
$SG441083 DB	'qRegisterNormalizedMetaType was called with a not normal'
	DB	'ized type name, please call qRegisterMetaType instead.', 00H
	ORG $+1
$SG449365 DB	'J:\QT5.12.2\5.12.2\msvc2017\include\QtCore\qmetatype.h', 00H
	ORG $+1
$SG449366 DB	'qRegisterNormalizedMetaType was called with a not normal'
	DB	'ized type name, please call qRegisterMetaType instead.', 00H
	ORG $+1
$SG449367 DB	'qRegisterNormalizedMetaType', 00H
$SG441487 DB	'J:\QT5.12.2\5.12.2\msvc2017\include\QtCore\qmetatype.h', 00H
	ORG $+1
$SG441489 DB	'qRegisterNormalizedMetaType', 00H
$SG441488 DB	'qRegisterNormalizedMetaType was called with a not normal'
	DB	'ized type name, please call qRegisterMetaType instead.', 00H
	ORG $+1
$SG449743 DB	'J:\QT5.12.2\5.12.2\msvc2017\include\QtCore\qmetatype.h', 00H
	ORG $+1
$SG449744 DB	'qRegisterNormalizedMetaType was called with a not normal'
	DB	'ized type name, please call qRegisterMetaType instead.', 00H
	ORG $+1
$SG449745 DB	'qRegisterNormalizedMetaType', 00H
$SG433415 DB	'J:\QT5.12.2\5.12.2\msvc2017\include\QtCore\qvector.h', 00H
	ORG $+3
$SG433416 DB	'asize >= 0 && asize <= aalloc', 00H
	ORG $+2
$SG433424 DB	'J:\QT5.12.2\5.12.2\msvc2017\include\QtCore\qvector.h', 00H
	ORG $+3
$SG433427 DB	'!x->ref.isStatic()', 00H
	ORG $+1
$SG433425 DB	'x->ref.isSharable() || options.testFlag(QArrayData::Unsh'
	DB	'arable)', 00H
$SG433426 DB	'J:\QT5.12.2\5.12.2\msvc2017\include\QtCore\qvector.h', 00H
	ORG $+3
$SG433440 DB	'J:\QT5.12.2\5.12.2\msvc2017\include\QtCore\qvector.h', 00H
	ORG $+3
$SG433441 DB	'int(d->alloc) == aalloc', 00H
$SG433442 DB	'J:\QT5.12.2\5.12.2\msvc2017\include\QtCore\qvector.h', 00H
	ORG $+3
$SG433443 DB	'isDetached()', 00H
	ORG $+3
$SG433444 DB	'J:\QT5.12.2\5.12.2\msvc2017\include\QtCore\qvector.h', 00H
	ORG $+3
$SG433445 DB	'x == d', 00H
	ORG $+1
$SG433453 DB	'J:\QT5.12.2\5.12.2\msvc2017\include\QtCore\qvector.h', 00H
	ORG $+3
$SG433454 DB	'd->data()', 00H
	ORG $+2
$SG433455 DB	'J:\QT5.12.2\5.12.2\msvc2017\include\QtCore\qvector.h', 00H
	ORG $+3
$SG433456 DB	'uint(d->size) <= d->alloc', 00H
	ORG $+2
$SG433457 DB	'J:\QT5.12.2\5.12.2\msvc2017\include\QtCore\qvector.h', 00H
	ORG $+3
$SG433458 DB	'd != Data::unsharableEmpty()', 00H
	ORG $+3
$SG433459 DB	'J:\QT5.12.2\5.12.2\msvc2017\include\QtCore\qvector.h', 00H
	ORG $+3
$SG433460 DB	'aalloc ? d != Data::sharedNull() : d == Data::sharedNull'
	DB	'()', 00H
	ORG $+1
$SG433461 DB	'J:\QT5.12.2\5.12.2\msvc2017\include\QtCore\qvector.h', 00H
	ORG $+3
$SG433462 DB	'd->alloc >= uint(aalloc)', 00H
	ORG $+3
$SG433463 DB	'J:\QT5.12.2\5.12.2\msvc2017\include\QtCore\qvector.h', 00H
	ORG $+3
$SG433464 DB	'd->size == asize', 00H
	ORG $+3
$SG441880 DB	'J:\QT5.12.2\5.12.2\msvc2017\include\QtCore\qmetatype.h', 00H
	ORG $+1
$SG441882 DB	'qRegisterNormalizedMetaType', 00H
$SG441881 DB	'qRegisterNormalizedMetaType was called with a not normal'
	DB	'ized type name, please call qRegisterMetaType instead.', 00H
	ORG $+1
$SG450459 DB	'invalid argument', 00H
	ORG $+3
$SG450460 DB	'%s', 00H
	ORG $+1
$SG450461 DB	'C:\Program Files (x86)\Microsoft Visual Studio\2019\Ente'
	DB	'rprise\VC\Tools\MSVC\14.23.28105\include\xmemory', 00H
	ORG $+3
$SG450464 DB	'"', 00H, 'i', 00H, 'n', 00H, 'v', 00H, 'a', 00H, 'l', 00H
	DB	'i', 00H, 'd', 00H, ' ', 00H, 'a', 00H, 'r', 00H, 'g', 00H, 'u'
	DB	00H, 'm', 00H, 'e', 00H, 'n', 00H, 't', 00H, '"', 00H, 00H, 00H
	ORG $+2
$SG442273 DB	'J:\QT5.12.2\5.12.2\msvc2017\include\QtCore\qmetatype.h', 00H
	ORG $+1
$SG442275 DB	'qRegisterNormalizedMetaType', 00H
$SG450462 DB	'C', 00H, ':', 00H, '\', 00H, 'P', 00H, 'r', 00H, 'o', 00H
	DB	'g', 00H, 'r', 00H, 'a', 00H, 'm', 00H, ' ', 00H, 'F', 00H, 'i'
	DB	00H, 'l', 00H, 'e', 00H, 's', 00H, ' ', 00H, '(', 00H, 'x', 00H
	DB	'8', 00H, '6', 00H, ')', 00H, '\', 00H, 'M', 00H, 'i', 00H, 'c'
	DB	00H, 'r', 00H, 'o', 00H, 's', 00H, 'o', 00H, 'f', 00H, 't', 00H
	DB	' ', 00H, 'V', 00H, 'i', 00H, 's', 00H, 'u', 00H, 'a', 00H, 'l'
	DB	00H, ' ', 00H, 'S', 00H, 't', 00H, 'u', 00H, 'd', 00H, 'i', 00H
	DB	'o', 00H, '\', 00H, '2', 00H, '0', 00H, '1', 00H, '9', 00H, '\'
	DB	00H, 'E', 00H, 'n', 00H, 't', 00H, 'e', 00H, 'r', 00H, 'p', 00H
	DB	'r', 00H, 'i', 00H, 's', 00H, 'e', 00H, '\', 00H, 'V', 00H, 'C'
	DB	00H, '\', 00H, 'T', 00H, 'o', 00H, 'o', 00H, 'l', 00H, 's', 00H
	DB	'\', 00H, 'M', 00H, 'S', 00H, 'V', 00H, 'C', 00H, '\', 00H, '1'
	DB	00H, '4', 00H, '.', 00H, '2', 00H, '3', 00H, '.', 00H, '2', 00H
	DB	'8', 00H, '1', 00H, '0', 00H, '5', 00H, '\', 00H, 'i', 00H, 'n'
	DB	00H, 'c', 00H, 'l', 00H, 'u', 00H, 'd', 00H, 'e', 00H, '\', 00H
	DB	'x', 00H, 'm', 00H, 'e', 00H, 'm', 00H, 'o', 00H, 'r', 00H, 'y'
	DB	00H, 00H, 00H
	ORG $+6
$SG450463 DB	's', 00H, 't', 00H, 'd', 00H, ':', 00H, ':', 00H, '_', 00H
	DB	'A', 00H, 'l', 00H, 'l', 00H, 'o', 00H, 'c', 00H, 'a', 00H, 't'
	DB	00H, 'e', 00H, '_', 00H, 'm', 00H, 'a', 00H, 'n', 00H, 'u', 00H
	DB	'a', 00H, 'l', 00H, 'l', 00H, 'y', 00H, '_', 00H, 'v', 00H, 'e'
	DB	00H, 'c', 00H, 't', 00H, 'o', 00H, 'r', 00H, '_', 00H, 'a', 00H
	DB	'l', 00H, 'i', 00H, 'g', 00H, 'n', 00H, 'e', 00H, 'd', 00H, 00H
	DB	00H
	ORG $+2
$SG442274 DB	'qRegisterNormalizedMetaType was called with a not normal'
	DB	'ized type name, please call qRegisterMetaType instead.', 00H
CONST	ENDS
PUBLIC	??_H@YGXPAXIIP6EPAX0@Z@Z			; `vector constructor iterator'
PUBLIC	?__empty_global_delete@@YAXPAX@Z		; __empty_global_delete
PUBLIC	?__empty_global_delete@@YAXPAXI@Z		; __empty_global_delete
PUBLIC	??C?$QScopedPointer@VQObjectData@@U?$QScopedPointerDeleter@VQObjectData@@@@@@QBEPAVQObjectData@@XZ ; QScopedPointer<QObjectData,QScopedPointerDeleter<QObjectData> >::operator->
PUBLIC	?metaObject@MyOpenGLWidget@@UBEPBUQMetaObject@@XZ ; MyOpenGLWidget::metaObject
PUBLIC	?qt_metacast@MyOpenGLWidget@@UAEPAXPBD@Z	; MyOpenGLWidget::qt_metacast
PUBLIC	?qt_metacall@MyOpenGLWidget@@UAEHW4Call@QMetaObject@@HPAPAX@Z ; MyOpenGLWidget::qt_metacall
PUBLIC	?qt_static_metacall@MyOpenGLWidget@@CAXPAVQObject@@W4Call@QMetaObject@@HPAPAX@Z ; MyOpenGLWidget::qt_static_metacall
PUBLIC	?staticMetaObject@MyOpenGLWidget@@2UQMetaObject@@B ; MyOpenGLWidget::staticMetaObject
EXTRN	_strcmp:PROC
EXTRN	__imp_?dynamicMetaObject@QObjectData@@QBEPAUQMetaObject@@XZ:PROC
EXTRN	__imp_?qt_metacast@QOpenGLWidget@@UAEPAXPBD@Z:PROC
EXTRN	__imp_?qt_metacall@QOpenGLWidget@@UAEHW4Call@QMetaObject@@HPAPAX@Z:PROC
EXTRN	__imp_?staticMetaObject@QOpenGLWidget@@2UQMetaObject@@B:BYTE
_BSS	SEGMENT
?staticMetaObject@MyOpenGLWidget@@2UQMetaObject@@B DB 018H DUP (?) ; MyOpenGLWidget::staticMetaObject
_BSS	ENDS
CRT$XCU	SEGMENT
??staticMetaObject$initializer$@MyOpenGLWidget@@2P6AXXZA@@3P6AXXZA DD FLAT:??__E?staticMetaObject@MyOpenGLWidget@@2UQMetaObject@@B@@YAXXZ ; ??staticMetaObject$initializer$@MyOpenGLWidget@@2P6AXXZA@@3P6AXXZA
CRT$XCU	ENDS
; Function compile flags: /Odtp
;	COMDAT ??__E?staticMetaObject@MyOpenGLWidget@@2UQMetaObject@@B@@YAXXZ
text$di	SEGMENT
??__E?staticMetaObject@MyOpenGLWidget@@2UQMetaObject@@B@@YAXXZ PROC ; `dynamic initializer for 'MyOpenGLWidget::staticMetaObject'', COMDAT
; File J:\for_linux_file\work\3D-Builder\3D-Builder\Debug\moc\moc_MyOpenGLWidget.cpp
; Line 72
	push	ebp
	mov	ebp, esp
; Line 66
	mov	eax, DWORD PTR __imp_?staticMetaObject@QOpenGLWidget@@2UQMetaObject@@B
	mov	DWORD PTR ?staticMetaObject@MyOpenGLWidget@@2UQMetaObject@@B, eax
; Line 67
	mov	DWORD PTR ?staticMetaObject@MyOpenGLWidget@@2UQMetaObject@@B+4, OFFSET ?qt_meta_stringdata_MyOpenGLWidget@@3Uqt_meta_stringdata_MyOpenGLWidget_t@@B
; Line 68
	mov	DWORD PTR ?staticMetaObject@MyOpenGLWidget@@2UQMetaObject@@B+8, OFFSET ?qt_meta_data_MyOpenGLWidget@@3QBIB
; Line 69
	mov	DWORD PTR ?staticMetaObject@MyOpenGLWidget@@2UQMetaObject@@B+12, OFFSET ?qt_static_metacall@MyOpenGLWidget@@CAXPAVQObject@@W4Call@QMetaObject@@HPAPAX@Z ; MyOpenGLWidget::qt_static_metacall
; Line 70
	mov	DWORD PTR ?staticMetaObject@MyOpenGLWidget@@2UQMetaObject@@B+16, 0
; Line 71
	mov	DWORD PTR ?staticMetaObject@MyOpenGLWidget@@2UQMetaObject@@B+20, 0
	pop	ebp
	ret	0
??__E?staticMetaObject@MyOpenGLWidget@@2UQMetaObject@@B@@YAXXZ ENDP ; `dynamic initializer for 'MyOpenGLWidget::staticMetaObject''
text$di	ENDS
; Function compile flags: /Odtp
_TEXT	SEGMENT
__o$ = 8						; size = 4
__c$ = 12						; size = 4
__id$ = 16						; size = 4
__a$ = 20						; size = 4
?qt_static_metacall@MyOpenGLWidget@@CAXPAVQObject@@W4Call@QMetaObject@@HPAPAX@Z PROC ; MyOpenGLWidget::qt_static_metacall
; File J:\for_linux_file\work\3D-Builder\3D-Builder\Debug\moc\moc_MyOpenGLWidget.cpp
; Line 58
	push	ebp
	mov	ebp, esp
; Line 63
	pop	ebp
	ret	0
?qt_static_metacall@MyOpenGLWidget@@CAXPAVQObject@@W4Call@QMetaObject@@HPAPAX@Z ENDP ; MyOpenGLWidget::qt_static_metacall
_TEXT	ENDS
; Function compile flags: /Odtp
_TEXT	SEGMENT
_this$ = -4						; size = 4
__c$ = 8						; size = 4
__id$ = 12						; size = 4
__a$ = 16						; size = 4
?qt_metacall@MyOpenGLWidget@@UAEHW4Call@QMetaObject@@HPAPAX@Z PROC ; MyOpenGLWidget::qt_metacall
; _this$ = ecx
; File J:\for_linux_file\work\3D-Builder\3D-Builder\Debug\moc\moc_MyOpenGLWidget.cpp
; Line 91
	push	ebp
	mov	ebp, esp
	push	ecx
	mov	DWORD PTR _this$[ebp], ecx
; Line 92
	mov	eax, DWORD PTR __a$[ebp]
	push	eax
	mov	ecx, DWORD PTR __id$[ebp]
	push	ecx
	mov	edx, DWORD PTR __c$[ebp]
	push	edx
	mov	ecx, DWORD PTR _this$[ebp]
	call	DWORD PTR __imp_?qt_metacall@QOpenGLWidget@@UAEHW4Call@QMetaObject@@HPAPAX@Z
	mov	DWORD PTR __id$[ebp], eax
; Line 93
	mov	eax, DWORD PTR __id$[ebp]
; Line 94
	mov	esp, ebp
	pop	ebp
	ret	12					; 0000000cH
?qt_metacall@MyOpenGLWidget@@UAEHW4Call@QMetaObject@@HPAPAX@Z ENDP ; MyOpenGLWidget::qt_metacall
_TEXT	ENDS
; Function compile flags: /Odtp
_TEXT	SEGMENT
tv77 = -8						; size = 4
_this$ = -4						; size = 4
__clname$ = 8						; size = 4
?qt_metacast@MyOpenGLWidget@@UAEPAXPBD@Z PROC		; MyOpenGLWidget::qt_metacast
; _this$ = ecx
; File J:\for_linux_file\work\3D-Builder\3D-Builder\Debug\moc\moc_MyOpenGLWidget.cpp
; Line 81
	push	ebp
	mov	ebp, esp
	sub	esp, 8
	mov	DWORD PTR _this$[ebp], ecx
; Line 82
	cmp	DWORD PTR __clname$[ebp], 0
	jne	SHORT $LN2@qt_metacas
	xor	eax, eax
	jmp	SHORT $LN1@qt_metacas
$LN2@qt_metacas:
; Line 83
	push	OFFSET ?qt_meta_stringdata_MyOpenGLWidget@@3Uqt_meta_stringdata_MyOpenGLWidget_t@@B+16
	mov	eax, DWORD PTR __clname$[ebp]
	push	eax
	call	_strcmp
	add	esp, 8
	test	eax, eax
	jne	SHORT $LN3@qt_metacas
; Line 84
	mov	eax, DWORD PTR _this$[ebp]
	jmp	SHORT $LN1@qt_metacas
$LN3@qt_metacas:
; Line 85
	push	OFFSET $SG411114
	mov	ecx, DWORD PTR __clname$[ebp]
	push	ecx
	call	_strcmp
	add	esp, 8
	test	eax, eax
	jne	SHORT $LN4@qt_metacas
; Line 86
	cmp	DWORD PTR _this$[ebp], 0
	je	SHORT $LN6@qt_metacas
	mov	edx, DWORD PTR _this$[ebp]
	add	edx, 24					; 00000018H
	mov	DWORD PTR tv77[ebp], edx
	jmp	SHORT $LN7@qt_metacas
$LN6@qt_metacas:
	mov	DWORD PTR tv77[ebp], 0
$LN7@qt_metacas:
	mov	eax, DWORD PTR tv77[ebp]
	jmp	SHORT $LN1@qt_metacas
$LN4@qt_metacas:
; Line 87
	mov	eax, DWORD PTR __clname$[ebp]
	push	eax
	mov	ecx, DWORD PTR _this$[ebp]
	call	DWORD PTR __imp_?qt_metacast@QOpenGLWidget@@UAEPAXPBD@Z
$LN1@qt_metacas:
; Line 88
	mov	esp, ebp
	pop	ebp
	ret	4
?qt_metacast@MyOpenGLWidget@@UAEPAXPBD@Z ENDP		; MyOpenGLWidget::qt_metacast
_TEXT	ENDS
; Function compile flags: /Odtp
_TEXT	SEGMENT
tv82 = -8						; size = 4
_this$ = -4						; size = 4
?metaObject@MyOpenGLWidget@@UBEPBUQMetaObject@@XZ PROC	; MyOpenGLWidget::metaObject
; _this$ = ecx
; File J:\for_linux_file\work\3D-Builder\3D-Builder\Debug\moc\moc_MyOpenGLWidget.cpp
; Line 76
	push	ebp
	mov	ebp, esp
	sub	esp, 8
	mov	DWORD PTR _this$[ebp], ecx
; Line 77
	mov	ecx, DWORD PTR _this$[ebp]
	add	ecx, 4
	call	??C?$QScopedPointer@VQObjectData@@U?$QScopedPointerDeleter@VQObjectData@@@@@@QBEPAVQObjectData@@XZ ; QScopedPointer<QObjectData,QScopedPointerDeleter<QObjectData> >::operator->
	cmp	DWORD PTR [eax+24], 0
	je	SHORT $LN3@metaObject
	mov	ecx, DWORD PTR _this$[ebp]
	add	ecx, 4
	call	??C?$QScopedPointer@VQObjectData@@U?$QScopedPointerDeleter@VQObjectData@@@@@@QBEPAVQObjectData@@XZ ; QScopedPointer<QObjectData,QScopedPointerDeleter<QObjectData> >::operator->
	mov	ecx, eax
	call	DWORD PTR __imp_?dynamicMetaObject@QObjectData@@QBEPAUQMetaObject@@XZ
	mov	DWORD PTR tv82[ebp], eax
	jmp	SHORT $LN4@metaObject
$LN3@metaObject:
	mov	DWORD PTR tv82[ebp], OFFSET ?staticMetaObject@MyOpenGLWidget@@2UQMetaObject@@B ; MyOpenGLWidget::staticMetaObject
$LN4@metaObject:
	mov	eax, DWORD PTR tv82[ebp]
; Line 78
	mov	esp, ebp
	pop	ebp
	ret	0
?metaObject@MyOpenGLWidget@@UBEPBUQMetaObject@@XZ ENDP	; MyOpenGLWidget::metaObject
_TEXT	ENDS
; Function compile flags: /Odtp
;	COMDAT ??C?$QScopedPointer@VQObjectData@@U?$QScopedPointerDeleter@VQObjectData@@@@@@QBEPAVQObjectData@@XZ
_TEXT	SEGMENT
_this$ = -4						; size = 4
??C?$QScopedPointer@VQObjectData@@U?$QScopedPointerDeleter@VQObjectData@@@@@@QBEPAVQObjectData@@XZ PROC ; QScopedPointer<QObjectData,QScopedPointerDeleter<QObjectData> >::operator->, COMDAT
; _this$ = ecx
; File J:\QT5.12.2\5.12.2\msvc2017\include\QtCore\qscopedpointer.h
; Line 117
	push	ebp
	mov	ebp, esp
	push	ecx
	mov	DWORD PTR _this$[ebp], ecx
; Line 118
	mov	eax, DWORD PTR _this$[ebp]
	mov	eax, DWORD PTR [eax]
; Line 119
	mov	esp, ebp
	pop	ebp
	ret	0
??C?$QScopedPointer@VQObjectData@@U?$QScopedPointerDeleter@VQObjectData@@@@@@QBEPAVQObjectData@@XZ ENDP ; QScopedPointer<QObjectData,QScopedPointerDeleter<QObjectData> >::operator->
_TEXT	ENDS
; Function compile flags: /Odtp
;	COMDAT ?__empty_global_delete@@YAXPAXI@Z
_TEXT	SEGMENT
___formal$ = 8						; size = 4
___formal$ = 12						; size = 4
?__empty_global_delete@@YAXPAXI@Z PROC			; __empty_global_delete, COMDAT
; File J:\for_linux_file\work\3D-Builder\3D-Builder\Debug\moc\moc_MyOpenGLWidget.cpp
; Line 97
	push	ebp
	mov	ebp, esp
	pop	ebp
	ret	0
?__empty_global_delete@@YAXPAXI@Z ENDP			; __empty_global_delete
_TEXT	ENDS
; Function compile flags: /Odtp
;	COMDAT ?__empty_global_delete@@YAXPAX@Z
_TEXT	SEGMENT
___formal$ = 8						; size = 4
?__empty_global_delete@@YAXPAX@Z PROC			; __empty_global_delete, COMDAT
; File J:\for_linux_file\work\3D-Builder\3D-Builder\Debug\moc\moc_MyOpenGLWidget.cpp
; Line 97
	push	ebp
	mov	ebp, esp
	pop	ebp
	ret	0
?__empty_global_delete@@YAXPAX@Z ENDP			; __empty_global_delete
_TEXT	ENDS
; Function compile flags: /Odtp
;	COMDAT ??_H@YGXPAXIIP6EPAX0@Z@Z
_TEXT	SEGMENT
tv66 = -4						; size = 4
___t$ = 8						; size = 4
___s$ = 12						; size = 4
___n$ = 16						; size = 4
___f$ = 20						; size = 4
??_H@YGXPAXIIP6EPAX0@Z@Z PROC				; `vector constructor iterator', COMDAT
	push	ebp
	mov	ebp, esp
	push	ecx
$LN2@vector:
	mov	eax, DWORD PTR ___n$[ebp]
	mov	DWORD PTR tv66[ebp], eax
	mov	ecx, DWORD PTR ___n$[ebp]
	sub	ecx, 1
	mov	DWORD PTR ___n$[ebp], ecx
	cmp	DWORD PTR tv66[ebp], 0
	jbe	SHORT $LN1@vector
	mov	ecx, DWORD PTR ___t$[ebp]
	call	DWORD PTR ___f$[ebp]
	mov	edx, DWORD PTR ___t$[ebp]
	add	edx, DWORD PTR ___s$[ebp]
	mov	DWORD PTR ___t$[ebp], edx
	jmp	SHORT $LN2@vector
$LN1@vector:
	mov	esp, ebp
	pop	ebp
	ret	16					; 00000010H
??_H@YGXPAXIIP6EPAX0@Z@Z ENDP				; `vector constructor iterator'
_TEXT	ENDS
END
