; Listing generated by Microsoft (R) Optimizing Compiler Version 19.23.28106.4 

	TITLE	J:\for_linux_file\work\3D-Builder\3D-Builder\Debug\moc\moc_Builder.cpp
	.686P
	.XMM
	include listing.inc
	.model	flat

INCLUDELIB MSVCRTD
INCLUDELIB OLDNAMES

CONST	SEGMENT
$SG442733 DB	'J:\QT5.12.2\5.12.2\msvc2017\include\QtCore\qmetatype.h', 00H
	ORG $+1
$SG450926 DB	'C:\Program Files (x86)\Microsoft Visual Studio\2019\Ente'
	DB	'rprise\VC\Tools\MSVC\14.23.28105\include\xlocale', 00H
	ORG $+3
$SG442735 DB	'qRegisterNormalizedMetaType', 00H
$SG442734 DB	'qRegisterNormalizedMetaType was called with a not normal'
	DB	'ized type name, please call qRegisterMetaType instead.', 00H
	ORG $+1
$SG434714 DB	'J:\QT5.12.2\5.12.2\msvc2017\include\QtCore\qmetatype.h', 00H
	ORG $+1
$SG434715 DB	'qRegisterNormalizedMetaType was called with a not normal'
	DB	'ized type name, please call qRegisterMetaType instead.', 00H
	ORG $+1
$SG434716 DB	'qRegisterNormalizedMetaType', 00H
$SG443126 DB	'J:\QT5.12.2\5.12.2\msvc2017\include\QtCore\qmetatype.h', 00H
	ORG $+1
$SG443128 DB	'qRegisterNormalizedMetaType', 00H
$SG443127 DB	'qRegisterNormalizedMetaType was called with a not normal'
	DB	'ized type name, please call qRegisterMetaType instead.', 00H
	ORG $+1
$SG435053 DB	'J:\QT5.12.2\5.12.2\msvc2017\include\QtCore\qmetatype.h', 00H
	ORG $+1
$SG435054 DB	'qRegisterNormalizedMetaType was called with a not normal'
	DB	'ized type name, please call qRegisterMetaType instead.', 00H
	ORG $+1
$SG435055 DB	'qRegisterNormalizedMetaType', 00H
?qt_meta_stringdata_Builder@@3Uqt_meta_stringdata_Builder_t@@B DD 0ffffffffH ; qt_meta_stringdata_Builder
	DD	07H
	DD	00H
	DD	010H
	DB	042H
	DB	075H
	DB	069H
	DB	06cH
	DB	064H
	DB	065H
	DB	072H
	DB	00H
?qt_meta_data_Builder@@3QBIB DD 08H			; qt_meta_data_Builder
	DD	00H
	DD	00H
	DD	00H
	DD	00H
	DD	00H
	DD	00H
	DD	00H
	DD	00H
	DD	00H
	DD	00H
	DD	00H
	DD	00H
	DD	00H
	DD	00H
$SG443519 DB	'J:\QT5.12.2\5.12.2\msvc2017\include\QtCore\qmetatype.h', 00H
	ORG $+1
$SG443520 DB	'qRegisterNormalizedMetaType was called with a not normal'
	DB	'ized type name, please call qRegisterMetaType instead.', 00H
	ORG $+1
$SG443521 DB	'qRegisterNormalizedMetaType', 00H
$SG435392 DB	'J:\QT5.12.2\5.12.2\msvc2017\include\QtCore\qmetatype.h', 00H
	ORG $+1
$SG435394 DB	'qRegisterNormalizedMetaType', 00H
$SG435393 DB	'qRegisterNormalizedMetaType was called with a not normal'
	DB	'ized type name, please call qRegisterMetaType instead.', 00H
	ORG $+1
$SG443912 DB	'J:\QT5.12.2\5.12.2\msvc2017\include\QtCore\qmetatype.h', 00H
	ORG $+1
$SG443913 DB	'qRegisterNormalizedMetaType was called with a not normal'
	DB	'ized type name, please call qRegisterMetaType instead.', 00H
	ORG $+1
$SG443914 DB	'qRegisterNormalizedMetaType', 00H
$SG444251 DB	'J:\QT5.12.2\5.12.2\msvc2017\include\QtCore\qmetatype.h', 00H
	ORG $+1
$SG444253 DB	'qRegisterNormalizedMetaType', 00H
$SG444252 DB	'qRegisterNormalizedMetaType was called with a not normal'
	DB	'ized type name, please call qRegisterMetaType instead.', 00H
	ORG $+1
$SG436219 DB	'J:\QT5.12.2\5.12.2\msvc2017\include\QtCore\qmetatype.h', 00H
	ORG $+1
$SG436220 DB	'qRegisterNormalizedMetaType was called with a not normal'
	DB	'ized type name, please call qRegisterMetaType instead.', 00H
	ORG $+1
$SG436221 DB	'qRegisterNormalizedMetaType', 00H
$SG444590 DB	'J:\QT5.12.2\5.12.2\msvc2017\include\QtCore\qmetatype.h', 00H
	ORG $+1
$SG444592 DB	'qRegisterNormalizedMetaType', 00H
$SG444591 DB	'qRegisterNormalizedMetaType was called with a not normal'
	DB	'ized type name, please call qRegisterMetaType instead.', 00H
	ORG $+1
$SG436597 DB	'J:\QT5.12.2\5.12.2\msvc2017\include\QtCore\qmetatype.h', 00H
	ORG $+1
$SG436598 DB	'qRegisterNormalizedMetaType was called with a not normal'
	DB	'ized type name, please call qRegisterMetaType instead.', 00H
	ORG $+1
$SG436599 DB	'qRegisterNormalizedMetaType', 00H
$SG428493 DB	'containers incompatible for swap', 00H
	ORG $+3
$SG428494 DB	'%s', 00H
	ORG $+1
$SG444970 DB	'qRegisterNormalizedMetaType', 00H
$SG428495 DB	'C:\Program Files (x86)\Microsoft Visual Studio\2019\Ente'
	DB	'rprise\VC\Tools\MSVC\14.23.28105\include\xmemory', 00H
	ORG $+3
$SG428497 DB	's', 00H, 't', 00H, 'd', 00H, ':', 00H, ':', 00H, '_', 00H
	DB	'P', 00H, 'o', 00H, 'c', 00H, 's', 00H, 00H, 00H
	ORG $+2
$SG444968 DB	'J:\QT5.12.2\5.12.2\msvc2017\include\QtCore\qmetatype.h', 00H
	ORG $+1
$SG436938 DB	'qRegisterNormalizedMetaType', 00H
$SG428496 DB	'C', 00H, ':', 00H, '\', 00H, 'P', 00H, 'r', 00H, 'o', 00H
	DB	'g', 00H, 'r', 00H, 'a', 00H, 'm', 00H, ' ', 00H, 'F', 00H, 'i'
	DB	00H, 'l', 00H, 'e', 00H, 's', 00H, ' ', 00H, '(', 00H, 'x', 00H
	DB	'8', 00H, '6', 00H, ')', 00H, '\', 00H, 'M', 00H, 'i', 00H, 'c'
	DB	00H, 'r', 00H, 'o', 00H, 's', 00H, 'o', 00H, 'f', 00H, 't', 00H
	DB	' ', 00H, 'V', 00H, 'i', 00H, 's', 00H, 'u', 00H, 'a', 00H, 'l'
	DB	00H, ' ', 00H, 'S', 00H, 't', 00H, 'u', 00H, 'd', 00H, 'i', 00H
	DB	'o', 00H, '\', 00H, '2', 00H, '0', 00H, '1', 00H, '9', 00H, '\'
	DB	00H, 'E', 00H, 'n', 00H, 't', 00H, 'e', 00H, 'r', 00H, 'p', 00H
	DB	'r', 00H, 'i', 00H, 's', 00H, 'e', 00H, '\', 00H, 'V', 00H, 'C'
	DB	00H, '\', 00H, 'T', 00H, 'o', 00H, 'o', 00H, 'l', 00H, 's', 00H
	DB	'\', 00H, 'M', 00H, 'S', 00H, 'V', 00H, 'C', 00H, '\', 00H, '1'
	DB	00H, '4', 00H, '.', 00H, '2', 00H, '3', 00H, '.', 00H, '2', 00H
	DB	'8', 00H, '1', 00H, '0', 00H, '5', 00H, '\', 00H, 'i', 00H, 'n'
	DB	00H, 'c', 00H, 'l', 00H, 'u', 00H, 'd', 00H, 'e', 00H, '\', 00H
	DB	'x', 00H, 'm', 00H, 'e', 00H, 'm', 00H, 'o', 00H, 'r', 00H, 'y'
	DB	00H, 00H, 00H
	ORG $+2
$SG436936 DB	'J:\QT5.12.2\5.12.2\msvc2017\include\QtCore\qmetatype.h', 00H
	ORG $+1
$SG445348 DB	'qRegisterNormalizedMetaType', 00H
$SG428498 DB	'"', 00H, 'c', 00H, 'o', 00H, 'n', 00H, 't', 00H, 'a', 00H
	DB	'i', 00H, 'n', 00H, 'e', 00H, 'r', 00H, 's', 00H, ' ', 00H, 'i'
	DB	00H, 'n', 00H, 'c', 00H, 'o', 00H, 'm', 00H, 'p', 00H, 'a', 00H
	DB	't', 00H, 'i', 00H, 'b', 00H, 'l', 00H, 'e', 00H, ' ', 00H, 'f'
	DB	00H, 'o', 00H, 'r', 00H, ' ', 00H, 's', 00H, 'w', 00H, 'a', 00H
	DB	'p', 00H, '"', 00H, 00H, 00H
	ORG $+2
$SG444969 DB	'qRegisterNormalizedMetaType was called with a not normal'
	DB	'ized type name, please call qRegisterMetaType instead.', 00H
	ORG $+1
$SG436937 DB	'qRegisterNormalizedMetaType was called with a not normal'
	DB	'ized type name, please call qRegisterMetaType instead.', 00H
	ORG $+1
$SG445346 DB	'J:\QT5.12.2\5.12.2\msvc2017\include\QtCore\qmetatype.h', 00H
	ORG $+1
$SG445347 DB	'qRegisterNormalizedMetaType was called with a not normal'
	DB	'ized type name, please call qRegisterMetaType instead.', 00H
	ORG $+1
$SG437275 DB	'J:\QT5.12.2\5.12.2\msvc2017\include\QtCore\qmetatype.h', 00H
	ORG $+1
$SG437276 DB	'qRegisterNormalizedMetaType was called with a not normal'
	DB	'ized type name, please call qRegisterMetaType instead.', 00H
	ORG $+1
$SG437277 DB	'qRegisterNormalizedMetaType', 00H
$SG445685 DB	'J:\QT5.12.2\5.12.2\msvc2017\include\QtCore\qmetatype.h', 00H
	ORG $+1
$SG445687 DB	'qRegisterNormalizedMetaType', 00H
$SG445686 DB	'qRegisterNormalizedMetaType was called with a not normal'
	DB	'ized type name, please call qRegisterMetaType instead.', 00H
	ORG $+1
$SG429382 DB	'J:\QT5.12.2\5.12.2\msvc2017\include\QtCore\qmetatype.h', 00H
	ORG $+1
$SG429383 DB	'qRegisterNormalizedMetaType was called with a not normal'
	DB	'ized type name, please call qRegisterMetaType instead.', 00H
	ORG $+1
$SG429384 DB	'qRegisterNormalizedMetaType', 00H
$SG437614 DB	'J:\QT5.12.2\5.12.2\msvc2017\include\QtCore\qmetatype.h', 00H
	ORG $+1
$SG437616 DB	'qRegisterNormalizedMetaType', 00H
$SG437615 DB	'qRegisterNormalizedMetaType was called with a not normal'
	DB	'ized type name, please call qRegisterMetaType instead.', 00H
	ORG $+1
$SG446063 DB	'J:\QT5.12.2\5.12.2\msvc2017\include\QtCore\qmetatype.h', 00H
	ORG $+1
$SG446064 DB	'qRegisterNormalizedMetaType was called with a not normal'
	DB	'ized type name, please call qRegisterMetaType instead.', 00H
	ORG $+1
$SG446065 DB	'qRegisterNormalizedMetaType', 00H
$SG437978 DB	'J:\QT5.12.2\5.12.2\msvc2017\include\QtCore\qmetatype.h', 00H
	ORG $+1
$SG437980 DB	'qRegisterNormalizedMetaType', 00H
$SG437979 DB	'qRegisterNormalizedMetaType was called with a not normal'
	DB	'ized type name, please call qRegisterMetaType instead.', 00H
	ORG $+1
$SG446441 DB	'J:\QT5.12.2\5.12.2\msvc2017\include\QtCore\qmetatype.h', 00H
	ORG $+1
$SG446442 DB	'qRegisterNormalizedMetaType was called with a not normal'
	DB	'ized type name, please call qRegisterMetaType instead.', 00H
	ORG $+1
$SG446443 DB	'qRegisterNormalizedMetaType', 00H
$SG438317 DB	'J:\QT5.12.2\5.12.2\msvc2017\include\QtCore\qmetatype.h', 00H
	ORG $+1
$SG438319 DB	'qRegisterNormalizedMetaType', 00H
$SG438318 DB	'qRegisterNormalizedMetaType was called with a not normal'
	DB	'ized type name, please call qRegisterMetaType instead.', 00H
	ORG $+1
$SG446780 DB	'J:\QT5.12.2\5.12.2\msvc2017\include\QtCore\qmetatype.h', 00H
	ORG $+1
$SG446781 DB	'qRegisterNormalizedMetaType was called with a not normal'
	DB	'ized type name, please call qRegisterMetaType instead.', 00H
	ORG $+1
$SG446782 DB	'qRegisterNormalizedMetaType', 00H
$SG438656 DB	'J:\QT5.12.2\5.12.2\msvc2017\include\QtCore\qmetatype.h', 00H
	ORG $+1
$SG438658 DB	'qRegisterNormalizedMetaType', 00H
$SG438657 DB	'qRegisterNormalizedMetaType was called with a not normal'
	DB	'ized type name, please call qRegisterMetaType instead.', 00H
	ORG $+1
$SG447157 DB	'J:\QT5.12.2\5.12.2\msvc2017\include\QtCore\qmetatype.h', 00H
	ORG $+1
$SG447158 DB	'qRegisterNormalizedMetaType was called with a not normal'
	DB	'ized type name, please call qRegisterMetaType instead.', 00H
	ORG $+1
$SG447159 DB	'qRegisterNormalizedMetaType', 00H
$SG438995 DB	'J:\QT5.12.2\5.12.2\msvc2017\include\QtCore\qmetatype.h', 00H
	ORG $+1
$SG438997 DB	'qRegisterNormalizedMetaType', 00H
$SG438996 DB	'qRegisterNormalizedMetaType was called with a not normal'
	DB	'ized type name, please call qRegisterMetaType instead.', 00H
	ORG $+1
$SG447534 DB	'J:\QT5.12.2\5.12.2\msvc2017\include\QtCore\qmetatype.h', 00H
	ORG $+1
$SG447535 DB	'qRegisterNormalizedMetaType was called with a not normal'
	DB	'ized type name, please call qRegisterMetaType instead.', 00H
	ORG $+1
$SG447536 DB	'qRegisterNormalizedMetaType', 00H
$SG447913 DB	'J:\QT5.12.2\5.12.2\msvc2017\include\QtCore\qmetatype.h', 00H
	ORG $+1
$SG447915 DB	'qRegisterNormalizedMetaType', 00H
$SG447914 DB	'qRegisterNormalizedMetaType was called with a not normal'
	DB	'ized type name, please call qRegisterMetaType instead.', 00H
	ORG $+1
$SG448291 DB	'J:\QT5.12.2\5.12.2\msvc2017\include\QtCore\qmetatype.h', 00H
	ORG $+1
$SG448292 DB	'qRegisterNormalizedMetaType was called with a not normal'
	DB	'ized type name, please call qRegisterMetaType instead.', 00H
	ORG $+1
$SG448293 DB	'qRegisterNormalizedMetaType', 00H
$SG440378 DB	'J:\QT5.12.2\5.12.2\msvc2017\include\QtCore\qmetatype.h', 00H
	ORG $+1
$SG440380 DB	'qRegisterNormalizedMetaType', 00H
$SG440379 DB	'qRegisterNormalizedMetaType was called with a not normal'
	DB	'ized type name, please call qRegisterMetaType instead.', 00H
	ORG $+1
$SG448661 DB	'J:\QT5.12.2\5.12.2\msvc2017\include\QtCore\qmetatype.h', 00H
	ORG $+1
$SG448662 DB	'qRegisterNormalizedMetaType was called with a not normal'
	DB	'ized type name, please call qRegisterMetaType instead.', 00H
	ORG $+1
$SG448663 DB	'qRegisterNormalizedMetaType', 00H
$SG440756 DB	'J:\QT5.12.2\5.12.2\msvc2017\include\QtCore\qmetatype.h', 00H
	ORG $+1
$SG440758 DB	'qRegisterNormalizedMetaType', 00H
$SG440757 DB	'qRegisterNormalizedMetaType was called with a not normal'
	DB	'ized type name, please call qRegisterMetaType instead.', 00H
	ORG $+1
$SG449039 DB	'J:\QT5.12.2\5.12.2\msvc2017\include\QtCore\qmetatype.h', 00H
	ORG $+1
$SG449040 DB	'qRegisterNormalizedMetaType was called with a not normal'
	DB	'ized type name, please call qRegisterMetaType instead.', 00H
	ORG $+1
$SG449041 DB	'qRegisterNormalizedMetaType', 00H
$SG441161 DB	'J:\QT5.12.2\5.12.2\msvc2017\include\QtCore\qmetatype.h', 00H
	ORG $+1
$SG441163 DB	'qRegisterNormalizedMetaType', 00H
$SG441162 DB	'qRegisterNormalizedMetaType was called with a not normal'
	DB	'ized type name, please call qRegisterMetaType instead.', 00H
	ORG $+1
$SG449417 DB	'J:\QT5.12.2\5.12.2\msvc2017\include\QtCore\qmetatype.h', 00H
	ORG $+1
$SG449418 DB	'qRegisterNormalizedMetaType was called with a not normal'
	DB	'ized type name, please call qRegisterMetaType instead.', 00H
	ORG $+1
$SG449419 DB	'qRegisterNormalizedMetaType', 00H
$SG433215 DB	'J:\QT5.12.2\5.12.2\msvc2017\include\QtCore\qvector.h', 00H
	ORG $+3
$SG433216 DB	'asize >= 0 && asize <= aalloc', 00H
	ORG $+2
$SG433224 DB	'J:\QT5.12.2\5.12.2\msvc2017\include\QtCore\qvector.h', 00H
	ORG $+3
$SG433227 DB	'!x->ref.isStatic()', 00H
	ORG $+1
$SG433225 DB	'x->ref.isSharable() || options.testFlag(QArrayData::Unsh'
	DB	'arable)', 00H
$SG433226 DB	'J:\QT5.12.2\5.12.2\msvc2017\include\QtCore\qvector.h', 00H
	ORG $+3
$SG433240 DB	'J:\QT5.12.2\5.12.2\msvc2017\include\QtCore\qvector.h', 00H
	ORG $+3
$SG433241 DB	'int(d->alloc) == aalloc', 00H
$SG433242 DB	'J:\QT5.12.2\5.12.2\msvc2017\include\QtCore\qvector.h', 00H
	ORG $+3
$SG433243 DB	'isDetached()', 00H
	ORG $+3
$SG433244 DB	'J:\QT5.12.2\5.12.2\msvc2017\include\QtCore\qvector.h', 00H
	ORG $+3
$SG433245 DB	'x == d', 00H
	ORG $+1
$SG433253 DB	'J:\QT5.12.2\5.12.2\msvc2017\include\QtCore\qvector.h', 00H
	ORG $+3
$SG433254 DB	'd->data()', 00H
	ORG $+2
$SG433255 DB	'J:\QT5.12.2\5.12.2\msvc2017\include\QtCore\qvector.h', 00H
	ORG $+3
$SG433256 DB	'uint(d->size) <= d->alloc', 00H
	ORG $+2
$SG433257 DB	'J:\QT5.12.2\5.12.2\msvc2017\include\QtCore\qvector.h', 00H
	ORG $+3
$SG433258 DB	'd != Data::unsharableEmpty()', 00H
	ORG $+3
$SG433259 DB	'J:\QT5.12.2\5.12.2\msvc2017\include\QtCore\qvector.h', 00H
	ORG $+3
$SG433260 DB	'aalloc ? d != Data::sharedNull() : d == Data::sharedNull'
	DB	'()', 00H
	ORG $+1
$SG433261 DB	'J:\QT5.12.2\5.12.2\msvc2017\include\QtCore\qvector.h', 00H
	ORG $+3
$SG433262 DB	'd->alloc >= uint(aalloc)', 00H
	ORG $+3
$SG433263 DB	'J:\QT5.12.2\5.12.2\msvc2017\include\QtCore\qvector.h', 00H
	ORG $+3
$SG433264 DB	'd->size == asize', 00H
	ORG $+3
$SG441554 DB	'J:\QT5.12.2\5.12.2\msvc2017\include\QtCore\qmetatype.h', 00H
	ORG $+1
$SG441556 DB	'qRegisterNormalizedMetaType', 00H
$SG441555 DB	'qRegisterNormalizedMetaType was called with a not normal'
	DB	'ized type name, please call qRegisterMetaType instead.', 00H
	ORG $+1
$SG450133 DB	'invalid argument', 00H
	ORG $+3
$SG450134 DB	'%s', 00H
	ORG $+1
$SG450135 DB	'C:\Program Files (x86)\Microsoft Visual Studio\2019\Ente'
	DB	'rprise\VC\Tools\MSVC\14.23.28105\include\xmemory', 00H
	ORG $+3
$SG450138 DB	'"', 00H, 'i', 00H, 'n', 00H, 'v', 00H, 'a', 00H, 'l', 00H
	DB	'i', 00H, 'd', 00H, ' ', 00H, 'a', 00H, 'r', 00H, 'g', 00H, 'u'
	DB	00H, 'm', 00H, 'e', 00H, 'n', 00H, 't', 00H, '"', 00H, 00H, 00H
	ORG $+2
$SG441947 DB	'J:\QT5.12.2\5.12.2\msvc2017\include\QtCore\qmetatype.h', 00H
	ORG $+1
$SG441949 DB	'qRegisterNormalizedMetaType', 00H
$SG450136 DB	'C', 00H, ':', 00H, '\', 00H, 'P', 00H, 'r', 00H, 'o', 00H
	DB	'g', 00H, 'r', 00H, 'a', 00H, 'm', 00H, ' ', 00H, 'F', 00H, 'i'
	DB	00H, 'l', 00H, 'e', 00H, 's', 00H, ' ', 00H, '(', 00H, 'x', 00H
	DB	'8', 00H, '6', 00H, ')', 00H, '\', 00H, 'M', 00H, 'i', 00H, 'c'
	DB	00H, 'r', 00H, 'o', 00H, 's', 00H, 'o', 00H, 'f', 00H, 't', 00H
	DB	' ', 00H, 'V', 00H, 'i', 00H, 's', 00H, 'u', 00H, 'a', 00H, 'l'
	DB	00H, ' ', 00H, 'S', 00H, 't', 00H, 'u', 00H, 'd', 00H, 'i', 00H
	DB	'o', 00H, '\', 00H, '2', 00H, '0', 00H, '1', 00H, '9', 00H, '\'
	DB	00H, 'E', 00H, 'n', 00H, 't', 00H, 'e', 00H, 'r', 00H, 'p', 00H
	DB	'r', 00H, 'i', 00H, 's', 00H, 'e', 00H, '\', 00H, 'V', 00H, 'C'
	DB	00H, '\', 00H, 'T', 00H, 'o', 00H, 'o', 00H, 'l', 00H, 's', 00H
	DB	'\', 00H, 'M', 00H, 'S', 00H, 'V', 00H, 'C', 00H, '\', 00H, '1'
	DB	00H, '4', 00H, '.', 00H, '2', 00H, '3', 00H, '.', 00H, '2', 00H
	DB	'8', 00H, '1', 00H, '0', 00H, '5', 00H, '\', 00H, 'i', 00H, 'n'
	DB	00H, 'c', 00H, 'l', 00H, 'u', 00H, 'd', 00H, 'e', 00H, '\', 00H
	DB	'x', 00H, 'm', 00H, 'e', 00H, 'm', 00H, 'o', 00H, 'r', 00H, 'y'
	DB	00H, 00H, 00H
	ORG $+2
$SG442340 DB	'J:\QT5.12.2\5.12.2\msvc2017\include\QtCore\qmetatype.h', 00H
	ORG $+1
$SG442342 DB	'qRegisterNormalizedMetaType', 00H
$SG450137 DB	's', 00H, 't', 00H, 'd', 00H, ':', 00H, ':', 00H, '_', 00H
	DB	'A', 00H, 'l', 00H, 'l', 00H, 'o', 00H, 'c', 00H, 'a', 00H, 't'
	DB	00H, 'e', 00H, '_', 00H, 'm', 00H, 'a', 00H, 'n', 00H, 'u', 00H
	DB	'a', 00H, 'l', 00H, 'l', 00H, 'y', 00H, '_', 00H, 'v', 00H, 'e'
	DB	00H, 'c', 00H, 't', 00H, 'o', 00H, 'r', 00H, '_', 00H, 'a', 00H
	DB	'l', 00H, 'i', 00H, 'g', 00H, 'n', 00H, 'e', 00H, 'd', 00H, 00H
	DB	00H
	ORG $+2
$SG441948 DB	'qRegisterNormalizedMetaType was called with a not normal'
	DB	'ized type name, please call qRegisterMetaType instead.', 00H
	ORG $+1
$SG442341 DB	'qRegisterNormalizedMetaType was called with a not normal'
	DB	'ized type name, please call qRegisterMetaType instead.', 00H
CONST	ENDS
PUBLIC	??_H@YGXPAXIIP6EPAX0@Z@Z			; `vector constructor iterator'
PUBLIC	?__empty_global_delete@@YAXPAX@Z		; __empty_global_delete
PUBLIC	?__empty_global_delete@@YAXPAXI@Z		; __empty_global_delete
PUBLIC	??C?$QScopedPointer@VQObjectData@@U?$QScopedPointerDeleter@VQObjectData@@@@@@QBEPAVQObjectData@@XZ ; QScopedPointer<QObjectData,QScopedPointerDeleter<QObjectData> >::operator->
PUBLIC	?metaObject@Builder@@UBEPBUQMetaObject@@XZ	; Builder::metaObject
PUBLIC	?qt_metacast@Builder@@UAEPAXPBD@Z		; Builder::qt_metacast
PUBLIC	?qt_metacall@Builder@@UAEHW4Call@QMetaObject@@HPAPAX@Z ; Builder::qt_metacall
PUBLIC	?qt_static_metacall@Builder@@CAXPAVQObject@@W4Call@QMetaObject@@HPAPAX@Z ; Builder::qt_static_metacall
PUBLIC	?staticMetaObject@Builder@@2UQMetaObject@@B	; Builder::staticMetaObject
EXTRN	_strcmp:PROC
EXTRN	__imp_?dynamicMetaObject@QObjectData@@QBEPAUQMetaObject@@XZ:PROC
EXTRN	__imp_?qt_metacast@QMainWindow@@UAEPAXPBD@Z:PROC
EXTRN	__imp_?qt_metacall@QMainWindow@@UAEHW4Call@QMetaObject@@HPAPAX@Z:PROC
EXTRN	__imp_?staticMetaObject@QMainWindow@@2UQMetaObject@@B:BYTE
_BSS	SEGMENT
?staticMetaObject@Builder@@2UQMetaObject@@B DB 018H DUP (?) ; Builder::staticMetaObject
_BSS	ENDS
CRT$XCU	SEGMENT
??staticMetaObject$initializer$@Builder@@2P6AXXZA@@3P6AXXZA DD FLAT:??__E?staticMetaObject@Builder@@2UQMetaObject@@B@@YAXXZ ; ??staticMetaObject$initializer$@Builder@@2P6AXXZA@@3P6AXXZA
CRT$XCU	ENDS
; Function compile flags: /Odtp
;	COMDAT ??__E?staticMetaObject@Builder@@2UQMetaObject@@B@@YAXXZ
text$di	SEGMENT
??__E?staticMetaObject@Builder@@2UQMetaObject@@B@@YAXXZ PROC ; `dynamic initializer for 'Builder::staticMetaObject'', COMDAT
; File J:\for_linux_file\work\3D-Builder\3D-Builder\Debug\moc\moc_Builder.cpp
; Line 72
	push	ebp
	mov	ebp, esp
; Line 66
	mov	eax, DWORD PTR __imp_?staticMetaObject@QMainWindow@@2UQMetaObject@@B
	mov	DWORD PTR ?staticMetaObject@Builder@@2UQMetaObject@@B, eax
; Line 67
	mov	DWORD PTR ?staticMetaObject@Builder@@2UQMetaObject@@B+4, OFFSET ?qt_meta_stringdata_Builder@@3Uqt_meta_stringdata_Builder_t@@B
; Line 68
	mov	DWORD PTR ?staticMetaObject@Builder@@2UQMetaObject@@B+8, OFFSET ?qt_meta_data_Builder@@3QBIB
; Line 69
	mov	DWORD PTR ?staticMetaObject@Builder@@2UQMetaObject@@B+12, OFFSET ?qt_static_metacall@Builder@@CAXPAVQObject@@W4Call@QMetaObject@@HPAPAX@Z ; Builder::qt_static_metacall
; Line 70
	mov	DWORD PTR ?staticMetaObject@Builder@@2UQMetaObject@@B+16, 0
; Line 71
	mov	DWORD PTR ?staticMetaObject@Builder@@2UQMetaObject@@B+20, 0
	pop	ebp
	ret	0
??__E?staticMetaObject@Builder@@2UQMetaObject@@B@@YAXXZ ENDP ; `dynamic initializer for 'Builder::staticMetaObject''
text$di	ENDS
; Function compile flags: /Odtp
_TEXT	SEGMENT
__o$ = 8						; size = 4
__c$ = 12						; size = 4
__id$ = 16						; size = 4
__a$ = 20						; size = 4
?qt_static_metacall@Builder@@CAXPAVQObject@@W4Call@QMetaObject@@HPAPAX@Z PROC ; Builder::qt_static_metacall
; File J:\for_linux_file\work\3D-Builder\3D-Builder\Debug\moc\moc_Builder.cpp
; Line 58
	push	ebp
	mov	ebp, esp
; Line 63
	pop	ebp
	ret	0
?qt_static_metacall@Builder@@CAXPAVQObject@@W4Call@QMetaObject@@HPAPAX@Z ENDP ; Builder::qt_static_metacall
_TEXT	ENDS
; Function compile flags: /Odtp
_TEXT	SEGMENT
_this$ = -4						; size = 4
__c$ = 8						; size = 4
__id$ = 12						; size = 4
__a$ = 16						; size = 4
?qt_metacall@Builder@@UAEHW4Call@QMetaObject@@HPAPAX@Z PROC ; Builder::qt_metacall
; _this$ = ecx
; File J:\for_linux_file\work\3D-Builder\3D-Builder\Debug\moc\moc_Builder.cpp
; Line 89
	push	ebp
	mov	ebp, esp
	push	ecx
	mov	DWORD PTR _this$[ebp], ecx
; Line 90
	mov	eax, DWORD PTR __a$[ebp]
	push	eax
	mov	ecx, DWORD PTR __id$[ebp]
	push	ecx
	mov	edx, DWORD PTR __c$[ebp]
	push	edx
	mov	ecx, DWORD PTR _this$[ebp]
	call	DWORD PTR __imp_?qt_metacall@QMainWindow@@UAEHW4Call@QMetaObject@@HPAPAX@Z
	mov	DWORD PTR __id$[ebp], eax
; Line 91
	mov	eax, DWORD PTR __id$[ebp]
; Line 92
	mov	esp, ebp
	pop	ebp
	ret	12					; 0000000cH
?qt_metacall@Builder@@UAEHW4Call@QMetaObject@@HPAPAX@Z ENDP ; Builder::qt_metacall
_TEXT	ENDS
; Function compile flags: /Odtp
_TEXT	SEGMENT
_this$ = -4						; size = 4
__clname$ = 8						; size = 4
?qt_metacast@Builder@@UAEPAXPBD@Z PROC			; Builder::qt_metacast
; _this$ = ecx
; File J:\for_linux_file\work\3D-Builder\3D-Builder\Debug\moc\moc_Builder.cpp
; Line 81
	push	ebp
	mov	ebp, esp
	push	ecx
	mov	DWORD PTR _this$[ebp], ecx
; Line 82
	cmp	DWORD PTR __clname$[ebp], 0
	jne	SHORT $LN2@qt_metacas
	xor	eax, eax
	jmp	SHORT $LN1@qt_metacas
$LN2@qt_metacas:
; Line 83
	push	OFFSET ?qt_meta_stringdata_Builder@@3Uqt_meta_stringdata_Builder_t@@B+16
	mov	eax, DWORD PTR __clname$[ebp]
	push	eax
	call	_strcmp
	add	esp, 8
	test	eax, eax
	jne	SHORT $LN3@qt_metacas
; Line 84
	mov	eax, DWORD PTR _this$[ebp]
	jmp	SHORT $LN1@qt_metacas
$LN3@qt_metacas:
; Line 85
	mov	ecx, DWORD PTR __clname$[ebp]
	push	ecx
	mov	ecx, DWORD PTR _this$[ebp]
	call	DWORD PTR __imp_?qt_metacast@QMainWindow@@UAEPAXPBD@Z
$LN1@qt_metacas:
; Line 86
	mov	esp, ebp
	pop	ebp
	ret	4
?qt_metacast@Builder@@UAEPAXPBD@Z ENDP			; Builder::qt_metacast
_TEXT	ENDS
; Function compile flags: /Odtp
_TEXT	SEGMENT
tv82 = -8						; size = 4
_this$ = -4						; size = 4
?metaObject@Builder@@UBEPBUQMetaObject@@XZ PROC		; Builder::metaObject
; _this$ = ecx
; File J:\for_linux_file\work\3D-Builder\3D-Builder\Debug\moc\moc_Builder.cpp
; Line 76
	push	ebp
	mov	ebp, esp
	sub	esp, 8
	mov	DWORD PTR _this$[ebp], ecx
; Line 77
	mov	ecx, DWORD PTR _this$[ebp]
	add	ecx, 4
	call	??C?$QScopedPointer@VQObjectData@@U?$QScopedPointerDeleter@VQObjectData@@@@@@QBEPAVQObjectData@@XZ ; QScopedPointer<QObjectData,QScopedPointerDeleter<QObjectData> >::operator->
	cmp	DWORD PTR [eax+24], 0
	je	SHORT $LN3@metaObject
	mov	ecx, DWORD PTR _this$[ebp]
	add	ecx, 4
	call	??C?$QScopedPointer@VQObjectData@@U?$QScopedPointerDeleter@VQObjectData@@@@@@QBEPAVQObjectData@@XZ ; QScopedPointer<QObjectData,QScopedPointerDeleter<QObjectData> >::operator->
	mov	ecx, eax
	call	DWORD PTR __imp_?dynamicMetaObject@QObjectData@@QBEPAUQMetaObject@@XZ
	mov	DWORD PTR tv82[ebp], eax
	jmp	SHORT $LN4@metaObject
$LN3@metaObject:
	mov	DWORD PTR tv82[ebp], OFFSET ?staticMetaObject@Builder@@2UQMetaObject@@B ; Builder::staticMetaObject
$LN4@metaObject:
	mov	eax, DWORD PTR tv82[ebp]
; Line 78
	mov	esp, ebp
	pop	ebp
	ret	0
?metaObject@Builder@@UBEPBUQMetaObject@@XZ ENDP		; Builder::metaObject
_TEXT	ENDS
; Function compile flags: /Odtp
;	COMDAT ??C?$QScopedPointer@VQObjectData@@U?$QScopedPointerDeleter@VQObjectData@@@@@@QBEPAVQObjectData@@XZ
_TEXT	SEGMENT
_this$ = -4						; size = 4
??C?$QScopedPointer@VQObjectData@@U?$QScopedPointerDeleter@VQObjectData@@@@@@QBEPAVQObjectData@@XZ PROC ; QScopedPointer<QObjectData,QScopedPointerDeleter<QObjectData> >::operator->, COMDAT
; _this$ = ecx
; File J:\QT5.12.2\5.12.2\msvc2017\include\QtCore\qscopedpointer.h
; Line 117
	push	ebp
	mov	ebp, esp
	push	ecx
	mov	DWORD PTR _this$[ebp], ecx
; Line 118
	mov	eax, DWORD PTR _this$[ebp]
	mov	eax, DWORD PTR [eax]
; Line 119
	mov	esp, ebp
	pop	ebp
	ret	0
??C?$QScopedPointer@VQObjectData@@U?$QScopedPointerDeleter@VQObjectData@@@@@@QBEPAVQObjectData@@XZ ENDP ; QScopedPointer<QObjectData,QScopedPointerDeleter<QObjectData> >::operator->
_TEXT	ENDS
; Function compile flags: /Odtp
;	COMDAT ?__empty_global_delete@@YAXPAXI@Z
_TEXT	SEGMENT
___formal$ = 8						; size = 4
___formal$ = 12						; size = 4
?__empty_global_delete@@YAXPAXI@Z PROC			; __empty_global_delete, COMDAT
; File J:\for_linux_file\work\3D-Builder\3D-Builder\Debug\moc\moc_Builder.cpp
; Line 95
	push	ebp
	mov	ebp, esp
	pop	ebp
	ret	0
?__empty_global_delete@@YAXPAXI@Z ENDP			; __empty_global_delete
_TEXT	ENDS
; Function compile flags: /Odtp
;	COMDAT ?__empty_global_delete@@YAXPAX@Z
_TEXT	SEGMENT
___formal$ = 8						; size = 4
?__empty_global_delete@@YAXPAX@Z PROC			; __empty_global_delete, COMDAT
; File J:\for_linux_file\work\3D-Builder\3D-Builder\Debug\moc\moc_Builder.cpp
; Line 95
	push	ebp
	mov	ebp, esp
	pop	ebp
	ret	0
?__empty_global_delete@@YAXPAX@Z ENDP			; __empty_global_delete
_TEXT	ENDS
; Function compile flags: /Odtp
;	COMDAT ??_H@YGXPAXIIP6EPAX0@Z@Z
_TEXT	SEGMENT
tv66 = -4						; size = 4
___t$ = 8						; size = 4
___s$ = 12						; size = 4
___n$ = 16						; size = 4
___f$ = 20						; size = 4
??_H@YGXPAXIIP6EPAX0@Z@Z PROC				; `vector constructor iterator', COMDAT
	push	ebp
	mov	ebp, esp
	push	ecx
$LN2@vector:
	mov	eax, DWORD PTR ___n$[ebp]
	mov	DWORD PTR tv66[ebp], eax
	mov	ecx, DWORD PTR ___n$[ebp]
	sub	ecx, 1
	mov	DWORD PTR ___n$[ebp], ecx
	cmp	DWORD PTR tv66[ebp], 0
	jbe	SHORT $LN1@vector
	mov	ecx, DWORD PTR ___t$[ebp]
	call	DWORD PTR ___f$[ebp]
	mov	edx, DWORD PTR ___t$[ebp]
	add	edx, DWORD PTR ___s$[ebp]
	mov	DWORD PTR ___t$[ebp], edx
	jmp	SHORT $LN2@vector
$LN1@vector:
	mov	esp, ebp
	pop	ebp
	ret	16					; 00000010H
??_H@YGXPAXIIP6EPAX0@Z@Z ENDP				; `vector constructor iterator'
_TEXT	ENDS
END
