; Listing generated by Microsoft (R) Optimizing Compiler Version 19.23.28106.4 

	TITLE	J:\for_linux_file\work\3D-Builder\3D-Builder\Release\moc\moc_MyOpenGLWidget.cpp
	.686P
	.XMM
	include listing.inc
	.model	flat

INCLUDELIB MSVCRT
INCLUDELIB OLDNAMES

EXTRN	__imp_?staticMetaObject@QOpenGLWidget@@2UQMetaObject@@B:BYTE
CONST	SEGMENT
?qt_meta_stringdata_MyOpenGLWidget@@3Uqt_meta_stringdata_MyOpenGLWidget_t@@B DD 0ffffffffH ; qt_meta_stringdata_MyOpenGLWidget
	DD	0eH
	DD	00H
	DD	010H
	DB	04dH
	DB	079H
	DB	04fH
	DB	070H
	DB	065H
	DB	06eH
	DB	047H
	DB	04cH
	DB	057H
	DB	069H
	DB	064H
	DB	067H
	DB	065H
	DB	074H
	DB	00H
	ORG $+1
?qt_meta_data_MyOpenGLWidget@@3QBIB DD 08H		; qt_meta_data_MyOpenGLWidget
	DD	00H
	DD	00H
	DD	00H
	DD	00H
	DD	00H
	DD	00H
	DD	00H
	DD	00H
	DD	00H
	DD	00H
	DD	00H
	DD	00H
	DD	00H
	DD	00H
CONST	ENDS
PUBLIC	??_H@YGXPAXIIP6EPAX0@Z@Z			; `vector constructor iterator'
PUBLIC	?metaObject@MyOpenGLWidget@@UBEPBUQMetaObject@@XZ ; MyOpenGLWidget::metaObject
PUBLIC	?qt_metacast@MyOpenGLWidget@@UAEPAXPBD@Z	; MyOpenGLWidget::qt_metacast
PUBLIC	?qt_metacall@MyOpenGLWidget@@UAEHW4Call@QMetaObject@@HPAPAX@Z ; MyOpenGLWidget::qt_metacall
PUBLIC	?qt_static_metacall@MyOpenGLWidget@@CAXPAVQObject@@W4Call@QMetaObject@@HPAPAX@Z ; MyOpenGLWidget::qt_static_metacall
PUBLIC	?staticMetaObject@MyOpenGLWidget@@2UQMetaObject@@B ; MyOpenGLWidget::staticMetaObject
PUBLIC	??_C@_0BK@JCGGCOHI@QOpenGLFunctions_4_4_Core@	; `string'
EXTRN	__imp_?dynamicMetaObject@QObjectData@@QBEPAUQMetaObject@@XZ:PROC
EXTRN	__imp_?qt_metacast@QOpenGLWidget@@UAEPAXPBD@Z:PROC
EXTRN	__imp_?qt_metacall@QOpenGLWidget@@UAEHW4Call@QMetaObject@@HPAPAX@Z:PROC
CRT$XCU	SEGMENT
??staticMetaObject$initializer$@MyOpenGLWidget@@2P6AXXZA@@3P6AXXZA DD FLAT:??__E?staticMetaObject@MyOpenGLWidget@@2UQMetaObject@@B@@YAXXZ ; ??staticMetaObject$initializer$@MyOpenGLWidget@@2P6AXXZA@@3P6AXXZA
CRT$XCU	ENDS
;	COMDAT ??_C@_0BK@JCGGCOHI@QOpenGLFunctions_4_4_Core@
CONST	SEGMENT
??_C@_0BK@JCGGCOHI@QOpenGLFunctions_4_4_Core@ DB 'QOpenGLFunctions_4_4_Co'
	DB	're', 00H					; `string'
CONST	ENDS
_DATA	SEGMENT
?staticMetaObject@MyOpenGLWidget@@2UQMetaObject@@B DB 4 DUP(00H) ; MyOpenGLWidget::staticMetaObject
	DD	FLAT:?qt_meta_stringdata_MyOpenGLWidget@@3Uqt_meta_stringdata_MyOpenGLWidget_t@@B
	DD	FLAT:?qt_meta_data_MyOpenGLWidget@@3QBIB
	DD	FLAT:?qt_static_metacall@MyOpenGLWidget@@CAXPAVQObject@@W4Call@QMetaObject@@HPAPAX@Z
	DD	00H
	DD	00H
_DATA	ENDS
; Function compile flags: /Ogtp
;	COMDAT ??__E?staticMetaObject@MyOpenGLWidget@@2UQMetaObject@@B@@YAXXZ
text$di	SEGMENT
??__E?staticMetaObject@MyOpenGLWidget@@2UQMetaObject@@B@@YAXXZ PROC ; `dynamic initializer for 'MyOpenGLWidget::staticMetaObject'', COMDAT
; File J:\for_linux_file\work\3D-Builder\3D-Builder\Release\moc\moc_MyOpenGLWidget.cpp
; Line 66
	mov	eax, DWORD PTR __imp_?staticMetaObject@QOpenGLWidget@@2UQMetaObject@@B
	mov	DWORD PTR ?staticMetaObject@MyOpenGLWidget@@2UQMetaObject@@B, eax
; Line 71
	ret	0
??__E?staticMetaObject@MyOpenGLWidget@@2UQMetaObject@@B@@YAXXZ ENDP ; `dynamic initializer for 'MyOpenGLWidget::staticMetaObject''
text$di	ENDS
; Function compile flags: /Ogtp
;	COMDAT ?qt_static_metacall@MyOpenGLWidget@@CAXPAVQObject@@W4Call@QMetaObject@@HPAPAX@Z
_TEXT	SEGMENT
__o$ = 8						; size = 4
__c$ = 12						; size = 4
__id$ = 16						; size = 4
__a$ = 20						; size = 4
?qt_static_metacall@MyOpenGLWidget@@CAXPAVQObject@@W4Call@QMetaObject@@HPAPAX@Z PROC ; MyOpenGLWidget::qt_static_metacall, COMDAT
; File J:\for_linux_file\work\3D-Builder\3D-Builder\Release\moc\moc_MyOpenGLWidget.cpp
; Line 63
	ret	0
?qt_static_metacall@MyOpenGLWidget@@CAXPAVQObject@@W4Call@QMetaObject@@HPAPAX@Z ENDP ; MyOpenGLWidget::qt_static_metacall
_TEXT	ENDS
; Function compile flags: /Ogtp
;	COMDAT ?qt_metacall@MyOpenGLWidget@@UAEHW4Call@QMetaObject@@HPAPAX@Z
_TEXT	SEGMENT
__c$ = 8						; size = 4
__id$ = 12						; size = 4
__a$ = 16						; size = 4
?qt_metacall@MyOpenGLWidget@@UAEHW4Call@QMetaObject@@HPAPAX@Z PROC ; MyOpenGLWidget::qt_metacall, COMDAT
; _this$ = ecx
; File J:\for_linux_file\work\3D-Builder\3D-Builder\Release\moc\moc_MyOpenGLWidget.cpp
; Line 91
	push	ebp
	mov	ebp, esp
; Line 94
	pop	ebp
; Line 92
	jmp	DWORD PTR __imp_?qt_metacall@QOpenGLWidget@@UAEHW4Call@QMetaObject@@HPAPAX@Z
?qt_metacall@MyOpenGLWidget@@UAEHW4Call@QMetaObject@@HPAPAX@Z ENDP ; MyOpenGLWidget::qt_metacall
_TEXT	ENDS
; Function compile flags: /Ogtp
;	COMDAT ?qt_metacast@MyOpenGLWidget@@UAEPAXPBD@Z
_TEXT	SEGMENT
__clname$ = 8						; size = 4
?qt_metacast@MyOpenGLWidget@@UAEPAXPBD@Z PROC		; MyOpenGLWidget::qt_metacast, COMDAT
; _this$ = ecx
; File J:\for_linux_file\work\3D-Builder\3D-Builder\Release\moc\moc_MyOpenGLWidget.cpp
; Line 81
	push	ebp
	mov	ebp, esp
	push	esi
	push	edi
; Line 82
	mov	edi, DWORD PTR __clname$[ebp]
	mov	esi, ecx
	test	edi, edi
	jne	SHORT $LN2@qt_metacas
	pop	edi
	xor	eax, eax
; Line 88
	pop	esi
	pop	ebp
	ret	4
$LN2@qt_metacas:
; Line 83
	mov	ecx, OFFSET ?qt_meta_stringdata_MyOpenGLWidget@@3Uqt_meta_stringdata_MyOpenGLWidget_t@@B+16
	mov	eax, edi
	npad	3
$LL8@qt_metacas:
	mov	dl, BYTE PTR [eax]
	cmp	dl, BYTE PTR [ecx]
	jne	SHORT $LN9@qt_metacas
	test	dl, dl
	je	SHORT $LN10@qt_metacas
	mov	dl, BYTE PTR [eax+1]
	cmp	dl, BYTE PTR [ecx+1]
	jne	SHORT $LN9@qt_metacas
	add	eax, 2
	add	ecx, 2
	test	dl, dl
	jne	SHORT $LL8@qt_metacas
$LN10@qt_metacas:
	xor	eax, eax
	jmp	SHORT $LN11@qt_metacas
$LN9@qt_metacas:
	sbb	eax, eax
	or	eax, 1
$LN11@qt_metacas:
	test	eax, eax
	jne	SHORT $LN3@qt_metacas
; Line 84
	pop	edi
	mov	eax, esi
; Line 88
	pop	esi
	pop	ebp
	ret	4
$LN3@qt_metacas:
; Line 85
	mov	ecx, OFFSET ??_C@_0BK@JCGGCOHI@QOpenGLFunctions_4_4_Core@
	mov	eax, edi
$LL12@qt_metacas:
	mov	dl, BYTE PTR [eax]
	cmp	dl, BYTE PTR [ecx]
	jne	SHORT $LN13@qt_metacas
	test	dl, dl
	je	SHORT $LN14@qt_metacas
	mov	dl, BYTE PTR [eax+1]
	cmp	dl, BYTE PTR [ecx+1]
	jne	SHORT $LN13@qt_metacas
	add	eax, 2
	add	ecx, 2
	test	dl, dl
	jne	SHORT $LL12@qt_metacas
$LN14@qt_metacas:
	xor	eax, eax
	jmp	SHORT $LN15@qt_metacas
$LN13@qt_metacas:
	sbb	eax, eax
	or	eax, 1
$LN15@qt_metacas:
	test	eax, eax
	jne	SHORT $LN4@qt_metacas
; Line 86
	lea	eax, DWORD PTR [esi+24]
	neg	esi
	pop	edi
	sbb	esi, esi
	and	eax, esi
; Line 88
	pop	esi
	pop	ebp
	ret	4
$LN4@qt_metacas:
; Line 87
	push	edi
	mov	ecx, esi
	call	DWORD PTR __imp_?qt_metacast@QOpenGLWidget@@UAEPAXPBD@Z
	pop	edi
; Line 88
	pop	esi
	pop	ebp
	ret	4
?qt_metacast@MyOpenGLWidget@@UAEPAXPBD@Z ENDP		; MyOpenGLWidget::qt_metacast
_TEXT	ENDS
; Function compile flags: /Ogtp
;	COMDAT ?metaObject@MyOpenGLWidget@@UBEPBUQMetaObject@@XZ
_TEXT	SEGMENT
?metaObject@MyOpenGLWidget@@UBEPBUQMetaObject@@XZ PROC	; MyOpenGLWidget::metaObject, COMDAT
; _this$ = ecx
; File J:\for_linux_file\work\3D-Builder\3D-Builder\Release\moc\moc_MyOpenGLWidget.cpp
; Line 77
	mov	ecx, DWORD PTR [ecx+4]
	cmp	DWORD PTR [ecx+24], 0
	je	SHORT $LN3@metaObject
	jmp	DWORD PTR __imp_?dynamicMetaObject@QObjectData@@QBEPAUQMetaObject@@XZ
$LN3@metaObject:
	mov	eax, OFFSET ?staticMetaObject@MyOpenGLWidget@@2UQMetaObject@@B ; MyOpenGLWidget::staticMetaObject
; Line 78
	ret	0
?metaObject@MyOpenGLWidget@@UBEPBUQMetaObject@@XZ ENDP	; MyOpenGLWidget::metaObject
_TEXT	ENDS
; Function compile flags: /Ogtp
;	COMDAT ??_H@YGXPAXIIP6EPAX0@Z@Z
_TEXT	SEGMENT
___t$ = 8						; size = 4
___s$ = 12						; size = 4
___n$ = 16						; size = 4
___f$ = 20						; size = 4
??_H@YGXPAXIIP6EPAX0@Z@Z PROC				; `vector constructor iterator', COMDAT
	push	ebp
	mov	ebp, esp
	push	esi
	mov	esi, DWORD PTR ___n$[ebp]
	test	esi, esi
	je	SHORT $LN6@vector
	push	ebx
	mov	ebx, DWORD PTR ___f$[ebp]
	push	edi
	mov	edi, DWORD PTR ___t$[ebp]
$LL2@vector:
	mov	ecx, edi
	call	ebx
	add	edi, DWORD PTR ___s$[ebp]
	sub	esi, 1
	jne	SHORT $LL2@vector
	pop	edi
	pop	ebx
$LN6@vector:
	pop	esi
	pop	ebp
	ret	16					; 00000010H
??_H@YGXPAXIIP6EPAX0@Z@Z ENDP				; `vector constructor iterator'
_TEXT	ENDS
END
